; Function Attrs: nounwind uwtable
define range(i32 0, 2) i32 @H5VL_term_package() local_unnamed_addr #0 {
  %1 = load i64, ptr @H5VL_def_conn_s, align 8
  %2 = icmp sgt i64 %1, 0
  br i1 %2, label %3, label %20

3:                                                ; preds = %0
  %4 = load ptr, ptr getelementptr inbounds (i8, ptr @H5VL_def_conn_s, i64 8), align 8
  %.not11.i = icmp eq ptr %4, null
  br i1 %.not11.i, label %12, label %5

5:                                                ; preds = %3
  %6 = tail call i32 @H5VL_free_connector_info(i64 noundef %1, ptr noundef nonnull %4) #10
  %7 = icmp slt i32 %6, 0
  br i1 %7, label %8, label %._crit_edge.i

._crit_edge.i:                                    ; preds = %5
  %.pre.i = load i64, ptr @H5VL_def_conn_s, align 8
  br label %12

8:                                                ; preds = %5
  %9 = load i64, ptr @H5E_VOL_g, align 8
  %10 = load i64, ptr @H5E_CANTRELEASE_g, align 8
  %11 = tail call i32 (ptr, ptr, i32, i64, i64, ptr, ...) @H5E_printf_stack(ptr noundef nonnull @.str.2, ptr noundef nonnull @__func__.H5VL_conn_free, i32 noundef 653, i64 noundef %9, i64 noundef %10, ptr noundef nonnull @.str.38) #10
  br label %H5VL_conn_free.exit

12:                                               ; preds = %._crit_edge.i, %3
  %13 = phi i64 [ %.pre.i, %._crit_edge.i ], [ %1, %3 ]
  %14 = tail call i32 @H5I_dec_ref(i64 noundef %13) #10
  %15 = icmp slt i32 %14, 0
  br i1 %15, label %16, label %H5VL_conn_free.exit

16:                                               ; preds = %12
  %17 = load i64, ptr @H5E_VOL_g, align 8
  %18 = load i64, ptr @H5E_CANTDEC_g, align 8
  %19 = tail call i32 (ptr, ptr, i32, i64, i64, ptr, ...) @H5E_printf_stack(ptr noundef nonnull @.str.2, ptr noundef nonnull @__func__.H5VL_conn_free, i32 noundef 657, i64 noundef %17, i64 noundef %18, ptr noundef nonnull @.str.39) #10
  br label %H5VL_conn_free.exit

H5VL_conn_free.exit:                              ; preds = %8, %12, %16
  store i64 -1, ptr @H5VL_def_conn_s, align 8
  store ptr null, ptr getelementptr inbounds (i8, ptr @H5VL_def_conn_s, i64 8), align 8
  br label %33

20:                                               ; preds = %0
  %21 = tail call i64 @H5I_nmembers(i32 noundef 9) #10
  %22 = icmp sgt i64 %21, 0
  br i1 %22, label %23, label %25

23:                                               ; preds = %20
  %24 = tail call i32 @H5I_clear_type(i32 noundef 9, i1 noundef zeroext true, i1 noundef zeroext false) #10
  br label %33

25:                                               ; preds = %20
  %26 = tail call i64 @H5VL__num_opt_operation() #10
  %.not = icmp eq i64 %26, 0
  br i1 %.not, label %29, label %27

27:                                               ; preds = %25
  %28 = tail call i32 @H5VL__term_opt_operation() #10
  br label %33

29:                                               ; preds = %25
  %30 = tail call i32 @H5I_dec_type_ref(i32 noundef 9) #10
  %31 = icmp sgt i32 %30, 0
  %32 = zext i1 %31 to i32
  br label %33

33:                                               ; preds = %23, %29, %27, %H5VL_conn_free.exit
  %.0 = phi i32 [ 1, %H5VL_conn_free.exit ], [ 1, %23 ], [ 1, %27 ], [ %32, %29 ]
  ret i32 %.0
}